(dp1
S'OriginalConfig'
p2
ccopy_reg
_reconstructor
p3
(cWMCore.Configuration
Configuration
p4
c__builtin__
object
p5
NtRp6
(dp7
S'Site'
p8
g3
(cWMCore.Configuration
ConfigSection
p9
g5
NtRp10
(dp11
S'_internal_skipChecks'
p12
I00
sS'_internal_documentation'
p13
S''
sS'_internal_settings'
p14
c__builtin__
set
p15
((lp16
S'storageSite'
p17
atRp18
sS'_internal_name'
p19
g8
sS'_internal_docstrings'
p20
(dp21
sS'_internal_children'
p22
g15
((ltRp23
sg17
S'T2_CH_CERN'
p24
sS'_internal_parent_ref'
p25
NsbsS'_internal_sections'
p26
(lp27
S'General'
p28
aS'JobType'
p29
aS'Data'
p30
ag8
aS'User'
p31
aS'Debug'
p32
asg28
g3
(g9
g5
NtRp33
(dp34
S'transferLogs'
p35
I01
sg12
I00
sg13
S''
sg14
g15
((lp36
g35
aS'workArea'
p37
aS'requestName'
p38
atRp39
sg19
g28
sg20
(dp40
sg22
g15
((ltRp41
sg38
S'QCD_MC_PU'
p42
sg25
Nsg37
S'crab_projects_out'
p43
sbsS'_internal_webapps'
p44
(lp45
sg31
g3
(g9
g5
NtRp46
(dp47
g12
I00
sg13
S''
sg14
g15
((ltRp48
sg19
g31
sg20
(dp49
sg22
g15
((ltRp50
sg25
NsbsS'_internal_components'
p51
(lp52
sg32
g3
(g9
g5
NtRp53
(dp54
g12
I00
sg13
S''
sg14
g15
((ltRp55
sg19
g32
sg20
(dp56
sg22
g15
((ltRp57
sg25
Nsbsg30
g3
(g9
g5
NtRp58
(dp59
S'inputDataset'
p60
S'/RelValQCD_FlatPt_15_3000HS_13/CMSSW_10_6_0_pre4-PU25ns_106X_upgrade2021_realistic_v4-v1/GEN-SIM-DIGI-RAW'
p61
sg12
I00
sS'unitsPerJob'
p62
I4
sg13
S''
sg14
g15
((lp63
g60
aS'publication'
p64
ag62
aS'splitting'
p65
aS'outLFNDirBase'
p66
aS'totalUnits'
p67
atRp68
sg19
g30
sg65
S'FileBased'
p69
sg20
(dp70
sg22
g15
((ltRp71
sg64
I00
sg66
S'/store/group/dpg_hcal/comm_hcal/gillian/LLP_Run3/HcalAnalysisFrameworkFiles/'
p72
sg25
Nsg67
I1
sbsg29
g3
(g9
g5
NtRp73
(dp74
g12
I00
sg13
S''
sg14
g15
((lp75
S'psetName'
p76
aS'pluginName'
p77
atRp78
sg19
g29
sg20
(dp79
sg77
S'Analysis'
p80
sg22
g15
((ltRp81
sg76
S'../test/analyze_run3.py'
p82
sg25
NsbsbsS'voGroup'
p83
S''
sS'Server'
p84
S'cmsweb.cern.ch'
p85
sS'instance'
p86
S'prod'
p87
sS'RequestName'
p88
V190802_085214:gkopp_crab_QCD_MC_PU
p89
sS'voRole'
p90
S'NULL'
p91
sS'Port'
p92
S''
s.